target datalayout = "e-m:e-p270:32:32-p271:32:32-p272:64:64-i64:64-i128:128-f80:128-n8:16:32:64-S128"
target triple = "x86_64-pc-linux-gnu"

%struct.Vec_Int_t_ = type { i32, i32, ptr }
%struct.Pla_Man_t_ = type { ptr, ptr, i32, i32, i32, i32, i32, %struct.Vec_Int_t_, %struct.Vec_Int_t_, %struct.Vec_Wrd_t_, %struct.Vec_Wrd_t_, %struct.Vec_Wec_t_, %struct.Vec_Wec_t_, %struct.Vec_Int_t_ }
%struct.Vec_Wrd_t_ = type { i32, i32, ptr }
%struct.Vec_Wec_t_ = type { i32, i32, ptr }

; Function Attrs: inlinehint nounwind uwtable
define internal void @Vec_WrdGrow(ptr noundef %0, i32 noundef %1) #4 {
  %3 = alloca ptr, align 8
  %4 = alloca i32, align 4
  store ptr %0, ptr %3, align 8, !tbaa !68
  store i32 %1, ptr %4, align 4, !tbaa !3
  %5 = load ptr, ptr %3, align 8, !tbaa !68
  %6 = getelementptr inbounds nuw %struct.Vec_Wrd_t_, ptr %5, i32 0, i32 0
  %7 = load i32, ptr %6, align 8, !tbaa !78
  %8 = load i32, ptr %4, align 4, !tbaa !3
  %9 = icmp sge i32 %7, %8
  br i1 %9, label %10, label %11

10:                                               ; preds = %2
  br label %36

11:                                               ; preds = %2
  %12 = load ptr, ptr %3, align 8, !tbaa !68
  %13 = getelementptr inbounds nuw %struct.Vec_Wrd_t_, ptr %12, i32 0, i32 2
  %14 = load ptr, ptr %13, align 8, !tbaa !70
  %15 = icmp ne ptr %14, null
  br i1 %15, label %16, label %24

16:                                               ; preds = %11
  %17 = load ptr, ptr %3, align 8, !tbaa !68
  %18 = getelementptr inbounds nuw %struct.Vec_Wrd_t_, ptr %17, i32 0, i32 2
  %19 = load ptr, ptr %18, align 8, !tbaa !70
  %20 = load i32, ptr %4, align 4, !tbaa !3
  %21 = sext i32 %20 to i64
  %22 = mul i64 8, %21
  %23 = call ptr @realloc(ptr noundef %19, i64 noundef %22) #14
  br label %29

24:                                               ; preds = %11
  %25 = load i32, ptr %4, align 4, !tbaa !3
  %26 = sext i32 %25 to i64
  %27 = mul i64 8, %26
  %28 = call noalias ptr @malloc(i64 noundef %27) #12
  br label %29

29:                                               ; preds = %24, %16
  %30 = phi ptr [ %23, %16 ], [ %28, %24 ]
  %31 = load ptr, ptr %3, align 8, !tbaa !68
  %32 = getelementptr inbounds nuw %struct.Vec_Wrd_t_, ptr %31, i32 0, i32 2
  store ptr %30, ptr %32, align 8, !tbaa !70
  %33 = load i32, ptr %4, align 4, !tbaa !3
  %34 = load ptr, ptr %3, align 8, !tbaa !68
  %35 = getelementptr inbounds nuw %struct.Vec_Wrd_t_, ptr %34, i32 0, i32 0
  store i32 %33, ptr %35, align 8, !tbaa !78
  br label %36

36:                                               ; preds = %29, %10
  ret void
}

; Function Attrs: inlinehint nounwind uwtable
define internal i32 @Vec_IntSize(ptr noundef %0) #4 {
  %2 = alloca ptr, align 8
  store ptr %0, ptr %2, align 8, !tbaa !24
  %3 = load ptr, ptr %2, align 8, !tbaa !24
  %4 = getelementptr inbounds nuw %struct.Vec_Int_t_, ptr %3, i32 0, i32 1
  %5 = load i32, ptr %4, align 4, !tbaa !27
  ret i32 %5
}

; Function Attrs: inlinehint nounwind uwtable
define internal void @Vec_IntGrow(ptr noundef %0, i32 noundef %1) #4 {
  %3 = alloca ptr, align 8
  %4 = alloca i32, align 4
  store ptr %0, ptr %3, align 8, !tbaa !24
  store i32 %1, ptr %4, align 4, !tbaa !3
  %5 = load ptr, ptr %3, align 8, !tbaa !24
  %6 = getelementptr inbounds nuw %struct.Vec_Int_t_, ptr %5, i32 0, i32 0
  %7 = load i32, ptr %6, align 8, !tbaa !29
  %8 = load i32, ptr %4, align 4, !tbaa !3
  %9 = icmp sge i32 %7, %8
  br i1 %9, label %10, label %11

10:                                               ; preds = %2
  br label %36

11:                                               ; preds = %2
  %12 = load ptr, ptr %3, align 8, !tbaa !24
  %13 = getelementptr inbounds nuw %struct.Vec_Int_t_, ptr %12, i32 0, i32 2
  %14 = load ptr, ptr %13, align 8, !tbaa !30
  %15 = icmp ne ptr %14, null
  br i1 %15, label %16, label %24

16:                                               ; preds = %11
  %17 = load ptr, ptr %3, align 8, !tbaa !24
  %18 = getelementptr inbounds nuw %struct.Vec_Int_t_, ptr %17, i32 0, i32 2
  %19 = load ptr, ptr %18, align 8, !tbaa !30
  %20 = load i32, ptr %4, align 4, !tbaa !3
  %21 = sext i32 %20 to i64
  %22 = mul i64 4, %21
  %23 = call ptr @realloc(ptr noundef %19, i64 noundef %22) #14
  br label %29

24:                                               ; preds = %11
  %25 = load i32, ptr %4, align 4, !tbaa !3
  %26 = sext i32 %25 to i64
  %27 = mul i64 4, %26
  %28 = call noalias ptr @malloc(i64 noundef %27) #12
  br label %29

29:                                               ; preds = %24, %16
  %30 = phi ptr [ %23, %16 ], [ %28, %24 ]
  %31 = load ptr, ptr %3, align 8, !tbaa !24
  %32 = getelementptr inbounds nuw %struct.Vec_Int_t_, ptr %31, i32 0, i32 2
  store ptr %30, ptr %32, align 8, !tbaa !30
  %33 = load i32, ptr %4, align 4, !tbaa !3
  %34 = load ptr, ptr %3, align 8, !tbaa !24
  %35 = getelementptr inbounds nuw %struct.Vec_Int_t_, ptr %34, i32 0, i32 0
  store i32 %33, ptr %35, align 8, !tbaa !29
  br label %36

36:                                               ; preds = %29, %10
  ret void
}

; Function Attrs: inlinehint nounwind uwtable
define internal void @Vec_WrdFill(ptr noundef %0, i32 noundef %1, i64 noundef %2) #4 {
  %4 = alloca ptr, align 8
  %5 = alloca i32, align 4
  %6 = alloca i64, align 8
  %7 = alloca i32, align 4
  store ptr %0, ptr %4, align 8, !tbaa !68
  store i32 %1, ptr %5, align 4, !tbaa !3
  store i64 %2, ptr %6, align 8, !tbaa !49
  call void @llvm.lifetime.start.p0(i64 4, ptr %7) #11
  %8 = load ptr, ptr %4, align 8, !tbaa !68
  %9 = load i32, ptr %5, align 4, !tbaa !3
  call void @Vec_WrdGrow(ptr noundef %8, i32 noundef %9)
  store i32 0, ptr %7, align 4, !tbaa !3
  br label %10

10:                                               ; preds = %22, %3
  %11 = load i32, ptr %7, align 4, !tbaa !3
  %12 = load i32, ptr %5, align 4, !tbaa !3
  %13 = icmp slt i32 %11, %12
  br i1 %13, label %14, label %25

14:                                               ; preds = %10
  %15 = load i64, ptr %6, align 8, !tbaa !49
  %16 = load ptr, ptr %4, align 8, !tbaa !68
  %17 = getelementptr inbounds nuw %struct.Vec_Wrd_t_, ptr %16, i32 0, i32 2
  %18 = load ptr, ptr %17, align 8, !tbaa !70
  %19 = load i32, ptr %7, align 4, !tbaa !3
  %20 = sext i32 %19 to i64
  %21 = getelementptr inbounds i64, ptr %18, i64 %20
  store i64 %15, ptr %21, align 8, !tbaa !49
  br label %22

22:                                               ; preds = %14
  %23 = load i32, ptr %7, align 4, !tbaa !3
  %24 = add nsw i32 %23, 1
  store i32 %24, ptr %7, align 4, !tbaa !3
  br label %10, !llvm.loop !71

25:                                               ; preds = %10
  %26 = load i32, ptr %5, align 4, !tbaa !3
  %27 = load ptr, ptr %4, align 8, !tbaa !68
  %28 = getelementptr inbounds nuw %struct.Vec_Wrd_t_, ptr %27, i32 0, i32 1
  store i32 %26, ptr %28, align 4, !tbaa !72
  call void @llvm.lifetime.end.p0(i64 4, ptr %7) #11
  ret void
}

; Function Attrs: inlinehint nounwind uwtable
define internal i32 @Pla_ManCubeNum(ptr noundef %0) #4 {
  %2 = alloca ptr, align 8
  store ptr %0, ptr %2, align 8, !tbaa !33
  %3 = load ptr, ptr %2, align 8, !tbaa !33
  %4 = getelementptr inbounds nuw %struct.Pla_Man_t_, ptr %3, i32 0, i32 7
  %5 = call i32 @Vec_IntSize(ptr noundef %4)
  ret i32 %5
}

; Function Attrs: inlinehint nounwind uwtable
define internal void @Vec_IntFillNatural(ptr noundef %0, i32 noundef %1) #4 {
  %3 = alloca ptr, align 8
  %4 = alloca i32, align 4
  %5 = alloca i32, align 4
  store ptr %0, ptr %3, align 8, !tbaa !24
  store i32 %1, ptr %4, align 4, !tbaa !3
  call void @llvm.lifetime.start.p0(i64 4, ptr %5) #11
  %6 = load ptr, ptr %3, align 8, !tbaa !24
  %7 = load i32, ptr %4, align 4, !tbaa !3
  call void @Vec_IntGrow(ptr noundef %6, i32 noundef %7)
  store i32 0, ptr %5, align 4, !tbaa !3
  br label %8

8:                                                ; preds = %20, %2
  %9 = load i32, ptr %5, align 4, !tbaa !3
  %10 = load i32, ptr %4, align 4, !tbaa !3
  %11 = icmp slt i32 %9, %10
  br i1 %11, label %12, label %23

12:                                               ; preds = %8
  %13 = load i32, ptr %5, align 4, !tbaa !3
  %14 = load ptr, ptr %3, align 8, !tbaa !24
  %15 = getelementptr inbounds nuw %struct.Vec_Int_t_, ptr %14, i32 0, i32 2
  %16 = load ptr, ptr %15, align 8, !tbaa !30
  %17 = load i32, ptr %5, align 4, !tbaa !3
  %18 = sext i32 %17 to i64
  %19 = getelementptr inbounds i32, ptr %16, i64 %18
  store i32 %13, ptr %19, align 4, !tbaa !3
  br label %20

20:                                               ; preds = %12
  %21 = load i32, ptr %5, align 4, !tbaa !3
  %22 = add nsw i32 %21, 1
  store i32 %22, ptr %5, align 4, !tbaa !3
  br label %8, !llvm.loop !67

23:                                               ; preds = %8
  %24 = load i32, ptr %4, align 4, !tbaa !3
  %25 = load ptr, ptr %3, align 8, !tbaa !24
  %26 = getelementptr inbounds nuw %struct.Vec_Int_t_, ptr %25, i32 0, i32 1
  store i32 %24, ptr %26, align 4, !tbaa !27
  call void @llvm.lifetime.end.p0(i64 4, ptr %5) #11
  ret void
}

; Function Attrs: inlinehint nounwind uwtable
define internal i32 @Abc_Bit6WordNum(i32 noundef %0) #4 {
  %2 = alloca i32, align 4
  store i32 %0, ptr %2, align 4, !tbaa !3
  %3 = load i32, ptr %2, align 4, !tbaa !3
  %4 = ashr i32 %3, 6
  %5 = load i32, ptr %2, align 4, !tbaa !3
  %6 = and i32 %5, 63
  %7 = icmp sgt i32 %6, 0
  %8 = zext i1 %7 to i32
  %9 = add nsw i32 %4, %8
  ret i32 %9
}

; Function Attrs: inlinehint nounwind uwtable
define internal ptr @Abc_UtilStrsav(ptr noundef %0) #4 {
  %2 = alloca ptr, align 8
  store ptr %0, ptr %2, align 8, !tbaa !31
  %3 = load ptr, ptr %2, align 8, !tbaa !31
  %4 = icmp ne ptr %3, null
  br i1 %4, label %5, label %13

5:                                                ; preds = %1
  %6 = load ptr, ptr %2, align 8, !tbaa !31
  %7 = call i64 @strlen(ptr noundef %6) #15
  %8 = add i64 %7, 1
  %9 = mul i64 1, %8
  %10 = call noalias ptr @malloc(i64 noundef %9) #12
  %11 = load ptr, ptr %2, align 8, !tbaa !31
  %12 = call ptr @strcpy(ptr noundef %10, ptr noundef %11) #11
  br label %14

13:                                               ; preds = %1
  br label %14

14:                                               ; preds = %13, %5
  %15 = phi ptr [ %12, %5 ], [ null, %13 ]
  ret ptr %15
}

; Function Attrs: inlinehint nounwind uwtable
define internal ptr @Pla_ManAlloc(ptr noundef %0, i32 noundef %1, i32 noundef %2, i32 noundef %3) #4 {
  %5 = alloca ptr, align 8
  %6 = alloca i32, align 4
  %7 = alloca i32, align 4
  %8 = alloca i32, align 4
  %9 = alloca ptr, align 8
  store ptr %0, ptr %5, align 8, !tbaa !31
  store i32 %1, ptr %6, align 4, !tbaa !3
  store i32 %2, ptr %7, align 4, !tbaa !3
  store i32 %3, ptr %8, align 4, !tbaa !3
  call void @llvm.lifetime.start.p0(i64 8, ptr %9) #11
  %10 = call noalias ptr @calloc(i64 noundef 1, i64 noundef 152) #13
  store ptr %10, ptr %9, align 8, !tbaa !33
  %11 = load ptr, ptr %5, align 8, !tbaa !31
  %12 = call ptr @Extra_FileDesignName(ptr noundef %11)
  %13 = load ptr, ptr %9, align 8, !tbaa !33
  %14 = getelementptr inbounds nuw %struct.Pla_Man_t_, ptr %13, i32 0, i32 0
  store ptr %12, ptr %14, align 8, !tbaa !40
  %15 = load ptr, ptr %5, align 8, !tbaa !31
  %16 = call ptr @Abc_UtilStrsav(ptr noundef %15)
  %17 = load ptr, ptr %9, align 8, !tbaa !33
  %18 = getelementptr inbounds nuw %struct.Pla_Man_t_, ptr %17, i32 0, i32 1
  store ptr %16, ptr %18, align 8, !tbaa !44
  %19 = load i32, ptr %6, align 4, !tbaa !3
  %20 = load ptr, ptr %9, align 8, !tbaa !33
  %21 = getelementptr inbounds nuw %struct.Pla_Man_t_, ptr %20, i32 0, i32 3
  store i32 %19, ptr %21, align 4, !tbaa !45
  %22 = load i32, ptr %7, align 4, !tbaa !3
  %23 = load ptr, ptr %9, align 8, !tbaa !33
  %24 = getelementptr inbounds nuw %struct.Pla_Man_t_, ptr %23, i32 0, i32 4
  store i32 %22, ptr %24, align 8, !tbaa !46
  %25 = load i32, ptr %6, align 4, !tbaa !3
  %26 = mul nsw i32 2, %25
  %27 = call i32 @Abc_Bit6WordNum(i32 noundef %26)
  %28 = load ptr, ptr %9, align 8, !tbaa !33
  %29 = getelementptr inbounds nuw %struct.Pla_Man_t_, ptr %28, i32 0, i32 5
  store i32 %27, ptr %29, align 4, !tbaa !47
  %30 = load i32, ptr %7, align 4, !tbaa !3
  %31 = mul nsw i32 2, %30
  %32 = call i32 @Abc_Bit6WordNum(i32 noundef %31)
  %33 = load ptr, ptr %9, align 8, !tbaa !33
  %34 = getelementptr inbounds nuw %struct.Pla_Man_t_, ptr %33, i32 0, i32 6
  store i32 %32, ptr %34, align 8, !tbaa !48
  %35 = load ptr, ptr %9, align 8, !tbaa !33
  %36 = getelementptr inbounds nuw %struct.Pla_Man_t_, ptr %35, i32 0, i32 7
  %37 = load i32, ptr %8, align 4, !tbaa !3
  call void @Vec_IntFillNatural(ptr noundef %36, i32 noundef %37)
  %38 = load ptr, ptr %9, align 8, !tbaa !33
  %39 = getelementptr inbounds nuw %struct.Pla_Man_t_, ptr %38, i32 0, i32 9
  %40 = load ptr, ptr %9, align 8, !tbaa !33
  %41 = call i32 @Pla_ManCubeNum(ptr noundef %40)
  %42 = load ptr, ptr %9, align 8, !tbaa !33
  %43 = getelementptr inbounds nuw %struct.Pla_Man_t_, ptr %42, i32 0, i32 5
  %44 = load i32, ptr %43, align 4, !tbaa !47
  %45 = mul nsw i32 %41, %44
  call void @Vec_WrdFill(ptr noundef %39, i32 noundef %45, i64 noundef 0)
  %46 = load ptr, ptr %9, align 8, !tbaa !33
  %47 = getelementptr inbounds nuw %struct.Pla_Man_t_, ptr %46, i32 0, i32 10
  %48 = load ptr, ptr %9, align 8, !tbaa !33
  %49 = call i32 @Pla_ManCubeNum(ptr noundef %48)
  %50 = load ptr, ptr %9, align 8, !tbaa !33
  %51 = getelementptr inbounds nuw %struct.Pla_Man_t_, ptr %50, i32 0, i32 6
  %52 = load i32, ptr %51, align 8, !tbaa !48
  %53 = mul nsw i32 %49, %52
  call void @Vec_WrdFill(ptr noundef %47, i32 noundef %53, i64 noundef 0)
  %54 = load ptr, ptr %9, align 8, !tbaa !33
  call void @llvm.lifetime.end.p0(i64 8, ptr %9) #11
  ret ptr %54
}