; Function Attrs: inlinehint nounwind uwtable
define internal fastcc noalias noundef ptr @Pla_ManAlloc(ptr noundef %0, i32 noundef %1, i32 noundef %2, i32 noundef %3) unnamed_addr #5 {
  %5 = tail call noalias dereferenceable_or_null(152) ptr @calloc(i64 noundef 1, i64 noundef 152) #21
  %6 = tail call ptr @Extra_FileDesignName(ptr noundef %0) #18
  store ptr %6, ptr %5, align 8, !tbaa !41
  %.not.i = icmp eq ptr %0, null
  br i1 %.not.i, label %Abc_UtilStrsav.exit, label %7

7:                                                ; preds = %4
  %8 = tail call i64 @strlen(ptr noundef nonnull readonly dereferenceable(1) %0) #22
  %9 = add i64 %8, 1
  %10 = tail call noalias ptr @malloc(i64 noundef %9) #19
  %11 = tail call ptr @strcpy(ptr noundef nonnull dereferenceable(1) %10, ptr noundef nonnull readonly dereferenceable(1) %0) #18
  br label %Abc_UtilStrsav.exit

Abc_UtilStrsav.exit:                              ; preds = %4, %7
  %12 = phi ptr [ %10, %7 ], [ null, %4 ]
  %13 = getelementptr inbounds nuw i8, ptr %5, i64 8
  store ptr %12, ptr %13, align 8, !tbaa !42
  %14 = getelementptr inbounds nuw i8, ptr %5, i64 20
  store i32 %1, ptr %14, align 4, !tbaa !29
  %15 = getelementptr inbounds nuw i8, ptr %5, i64 24
  store i32 %2, ptr %15, align 8, !tbaa !43
  %16 = ashr i32 %1, 5
  %17 = and i32 %1, 31
  %18 = icmp ne i32 %17, 0
  %19 = zext i1 %18 to i32
  %20 = add nsw i32 %16, %19
  %21 = getelementptr inbounds nuw i8, ptr %5, i64 28
  store i32 %20, ptr %21, align 4, !tbaa !34
  %22 = ashr i32 %2, 5
  %23 = and i32 %2, 31
  %24 = icmp ne i32 %23, 0
  %25 = zext i1 %24 to i32
  %26 = add nsw i32 %22, %25
  %27 = getelementptr inbounds nuw i8, ptr %5, i64 32
  store i32 %26, ptr %27, align 8, !tbaa !39
  %.not.i.i = icmp sgt i32 %3, 0
  br i1 %.not.i.i, label %.lr.ph.i, label %Vec_IntFillNatural.exit

.lr.ph.i:                                         ; preds = %Abc_UtilStrsav.exit
  %28 = getelementptr inbounds nuw i8, ptr %5, i64 40
  %29 = getelementptr inbounds nuw i8, ptr %5, i64 48
  %30 = zext nneg i32 %3 to i64
  %31 = shl nuw nsw i64 %30, 2
  %32 = tail call noalias ptr @malloc(i64 noundef %31) #19
  store ptr %32, ptr %29, align 8, !tbaa !24
  store i32 %3, ptr %28, align 8, !tbaa !23
  %wide.trip.count.i = zext nneg i32 %3 to i64
  br label %33

33:                                               ; preds = %33, %.lr.ph.i
  %indvars.iv.i = phi i64 [ 0, %.lr.ph.i ], [ %indvars.iv.next.i, %33 ]
  %34 = getelementptr inbounds nuw i32, ptr %32, i64 %indvars.iv.i
  %35 = trunc nuw nsw i64 %indvars.iv.i to i32
  store i32 %35, ptr %34, align 4, !tbaa !17
  %indvars.iv.next.i = add nuw nsw i64 %indvars.iv.i, 1
  %exitcond.not.i = icmp eq i64 %indvars.iv.next.i, %wide.trip.count.i
  br i1 %exitcond.not.i, label %Vec_IntFillNatural.exit.loopexit, label %33, !llvm.loop !44

Vec_IntFillNatural.exit.loopexit:                 ; preds = %33
  %.phi.trans.insert = getelementptr inbounds nuw i8, ptr %5, i64 72
  %.pre = load i32, ptr %.phi.trans.insert, align 8, !tbaa !45
  br label %Vec_IntFillNatural.exit

Vec_IntFillNatural.exit:                          ; preds = %Abc_UtilStrsav.exit, %Vec_IntFillNatural.exit.loopexit
  %36 = phi i32 [ %.pre, %Vec_IntFillNatural.exit.loopexit ], [ 0, %Abc_UtilStrsav.exit ]
  %37 = getelementptr inbounds nuw i8, ptr %5, i64 44
  store i32 %3, ptr %37, align 4, !tbaa !21
  %38 = mul nsw i32 %20, %3
  %.not.i.i21 = icmp slt i32 %36, %38
  br i1 %.not.i.i21, label %39, label %Vec_WrdGrow.exit.i

39:                                               ; preds = %Vec_IntFillNatural.exit
  %40 = getelementptr inbounds nuw i8, ptr %5, i64 72
  %41 = getelementptr inbounds nuw i8, ptr %5, i64 80
  %42 = sext i32 %38 to i64
  %43 = shl nsw i64 %42, 3
  %44 = tail call noalias ptr @malloc(i64 noundef %43) #19
  store ptr %44, ptr %41, align 8, !tbaa !26
  store i32 %38, ptr %40, align 8, !tbaa !45
  br label %Vec_WrdGrow.exit.i

Vec_WrdGrow.exit.i:                               ; preds = %39, %Vec_IntFillNatural.exit
  %45 = phi ptr [ %44, %39 ], [ null, %Vec_IntFillNatural.exit ]
  %46 = icmp sgt i32 %38, 0
  br i1 %46, label %.lr.ph.i22, label %Vec_WrdFill.exit

.lr.ph.i22:                                       ; preds = %Vec_WrdGrow.exit.i
  %47 = zext nneg i32 %38 to i64
  %48 = shl nuw nsw i64 %47, 3
  tail call void @llvm.memset.p0.i64(ptr align 8 %45, i8 0, i64 %48, i1 false), !tbaa !35
  br label %Vec_WrdFill.exit

Vec_WrdFill.exit:                                 ; preds = %Vec_WrdGrow.exit.i, %.lr.ph.i22
  %49 = getelementptr inbounds nuw i8, ptr %5, i64 76
  store i32 %38, ptr %49, align 4, !tbaa !46
  %50 = getelementptr inbounds nuw i8, ptr %5, i64 88
  %51 = mul nsw i32 %26, %3
  %52 = load i32, ptr %50, align 8, !tbaa !45
  %.not.i.i24 = icmp slt i32 %52, %51
  br i1 %.not.i.i24, label %53, label %Vec_WrdGrow.exit.i25

53:                                               ; preds = %Vec_WrdFill.exit
  %54 = getelementptr inbounds nuw i8, ptr %5, i64 96
  %55 = sext i32 %51 to i64
  %56 = shl nsw i64 %55, 3
  %57 = tail call noalias ptr @malloc(i64 noundef %56) #19
  store ptr %57, ptr %54, align 8, !tbaa !26
  store i32 %51, ptr %50, align 8, !tbaa !45
  br label %Vec_WrdGrow.exit.i25

Vec_WrdGrow.exit.i25:                             ; preds = %53, %Vec_WrdFill.exit
  %58 = phi ptr [ %57, %53 ], [ null, %Vec_WrdFill.exit ]
  %59 = icmp sgt i32 %51, 0
  br i1 %59, label %.lr.ph.i26, label %Vec_WrdFill.exit28

.lr.ph.i26:                                       ; preds = %Vec_WrdGrow.exit.i25
  %60 = zext nneg i32 %51 to i64
  %61 = shl nuw nsw i64 %60, 3
  tail call void @llvm.memset.p0.i64(ptr align 8 %58, i8 0, i64 %61, i1 false), !tbaa !35
  br label %Vec_WrdFill.exit28

Vec_WrdFill.exit28:                               ; preds = %Vec_WrdGrow.exit.i25, %.lr.ph.i26
  %62 = getelementptr inbounds nuw i8, ptr %5, i64 92
  store i32 %51, ptr %62, align 4, !tbaa !46
  ret ptr %5
}